; Function Attrs: nounwind uwtable
define void @lv_group_focus_next(ptr noundef %0) local_unnamed_addr #0 {
  %.not = icmp eq ptr %0, null
  br i1 %.not, label %.preheader, label %2

.preheader:                                       ; preds = %1, %.preheader
  br label %.preheader

2:                                                ; preds = %1
  %3 = tail call fastcc zeroext i1 @focus_next_core(ptr noundef %0, ptr noundef nonnull @lv_ll_get_head, ptr noundef nonnull @lv_ll_get_next)
  %4 = getelementptr inbounds nuw i8, ptr %0, i64 40
  %5 = load ptr, ptr %4, align 8, !tbaa !36
  %.not6 = icmp eq ptr %5, null
  %brmerge = or i1 %3, %.not6
  br i1 %brmerge, label %7, label %6

6:                                                ; preds = %2
  tail call void %5(ptr noundef nonnull %0, i1 noundef zeroext true) #10
  br label %7

7:                                                ; preds = %2, %6
  ret void
}